; Function Attrs: nounwind uwtable
define ptr @l_Lean_Elab_Term_withNarrowedArgTacticReuse___at_Lean_Elab_Term_runTactic___spec__19(ptr noundef %0, ptr noundef %1, ptr noundef %2, ptr noundef %3, ptr noundef %4, ptr noundef %5, ptr noundef %6, ptr noundef %7, ptr noundef %8, ptr noundef %9, ptr noundef %10, ptr noundef %11) #0 {
  tail call void @lean_inc_heartbeat() #7
  %13 = tail call noalias ptr @mi_malloc_small(i64 noundef 32) #7
  %14 = icmp eq ptr %13, null
  br i1 %14, label %15, label %lean_alloc_closure.exit

15:                                               ; preds = %12
  tail call void @lean_internal_panic_out_of_memory() #8
  unreachable

lean_alloc_closure.exit:                          ; preds = %12
  %16 = getelementptr inbounds nuw i8, ptr %13, i64 4
  store i32 1, ptr %13, align 4, !tbaa !7
  store i32 -184549344, ptr %16, align 4
  %17 = getelementptr inbounds nuw i8, ptr %13, i64 8
  store ptr @l_Lean_Elab_Term_withNarrowedArgTacticReuse___at_Lean_Elab_Term_runTactic___spec__19___lambda__1___boxed, ptr %17, align 8, !tbaa !10
  %18 = getelementptr inbounds nuw i8, ptr %13, i64 16
  store i16 2, ptr %18, align 8, !tbaa !17
  %19 = getelementptr inbounds nuw i8, ptr %13, i64 18
  store i16 1, ptr %19, align 2, !tbaa !17
  %20 = getelementptr inbounds nuw i8, ptr %13, i64 24
  store ptr %0, ptr %20, align 8, !tbaa !10
  %21 = tail call ptr @l_Lean_Elab_Term_withNarrowedTacticReuse___at_Lean_Elab_Term_runTactic___spec__20(ptr noundef nonnull %13, ptr noundef %1, ptr noundef %2, ptr noundef %3, ptr noundef %4, ptr noundef %5, ptr noundef %6, ptr noundef %7, ptr noundef %8, ptr noundef %9, ptr noundef %10, ptr noundef %11)
  ret ptr %21
}